; Function Attrs: mustprogress uwtable
define internal void @_ZN11opencv_test12_GLOBAL__N_150gtest_JointBilateralFilterTest_perf_EvalGenerator_Ev(ptr dead_on_unwind noalias writable sret(%"class.testing::internal::ParamGenerator") align 8 %0) #4 {
  %2 = alloca %"class.testing::internal::CartesianProductHolder5", align 8
  call void @llvm.lifetime.start.p0(i64 72, ptr nonnull %2) #30
  %.sroa.03.0.copyload = load i64, ptr @_ZN4perfL5szVGAE, align 8
  %.sroa.02.0.copyload = load i64, ptr @_ZN4perfL5szqHDE, align 8
  %.sroa.01.0.copyload = load i64, ptr @_ZN4perfL6sz720pE, align 8
  %.sroa.0.0.copyload = load i64, ptr @_ZN4perfL5szODDE, align 8
  store double 4.000000e+00, ptr %2, align 8, !tbaa !34, !alias.scope !37
  %3 = getelementptr inbounds nuw i8, ptr %2, i64 8
  store double 1.000000e+01, ptr %3, align 8, !tbaa !40, !alias.scope !37
  %4 = getelementptr inbounds nuw i8, ptr %2, i64 16
  store i64 %.sroa.03.0.copyload, ptr %4, align 8, !alias.scope !37
  %5 = getelementptr inbounds nuw i8, ptr %2, i64 24
  store i64 %.sroa.02.0.copyload, ptr %5, align 8, !alias.scope !37
  %6 = getelementptr inbounds nuw i8, ptr %2, i64 32
  store i64 %.sroa.01.0.copyload, ptr %6, align 8, !alias.scope !37
  %7 = getelementptr inbounds nuw i8, ptr %2, i64 40
  store i64 %.sroa.0.0.copyload, ptr %7, align 8, !alias.scope !37
  %8 = getelementptr inbounds nuw i8, ptr %2, i64 48
  store i32 0, ptr %8, align 8, !tbaa !41, !alias.scope !37
  %9 = getelementptr inbounds nuw i8, ptr %2, i64 52
  store i32 5, ptr %9, align 4, !tbaa !43, !alias.scope !37
  %10 = getelementptr inbounds nuw i8, ptr %2, i64 56
  store i32 1, ptr %10, align 8, !tbaa !41, !alias.scope !37
  %11 = getelementptr inbounds nuw i8, ptr %2, i64 60
  store i32 3, ptr %11, align 4, !tbaa !43, !alias.scope !37
  %12 = getelementptr inbounds nuw i8, ptr %2, i64 64
  store i32 1, ptr %12, align 8, !tbaa !41, !alias.scope !37
  %13 = getelementptr inbounds nuw i8, ptr %2, i64 68
  store i32 3, ptr %13, align 4, !tbaa !43, !alias.scope !37
  call void @_ZNK7testing8internal23CartesianProductHolder5INS0_11ValueArray2IddEENS0_11ValueArray4IN2cv5Size_IiEES7_S7_S7_EENS2_IiiEES9_S9_EcvNS0_14ParamGeneratorISt5tupleIJT_T0_T1_T2_T3_EEEEIdS7_N4perf7MatTypeEiiEEv(ptr dead_on_unwind writable sret(%"class.testing::internal::ParamGenerator") align 8 %0, ptr noundef nonnull align 8 dereferenceable(72) %2)
  call void @llvm.lifetime.end.p0(i64 72, ptr nonnull %2) #30
  ret void
}